; Function Attrs: mustprogress uwtable
define noundef double @_ZNK8QuantLib21AnalyticBarrierEngine1DEdd(ptr noundef nonnull align 8 dereferenceable(440) %this, double noundef %eta, double noundef %phi) local_unnamed_addr #8 align 2 {
entry:
  %barrier.i = getelementptr inbounds nuw i8, ptr %this, i64 160
  %0 = load double, ptr %barrier.i, align 8, !tbaa !103
  %process_.i = getelementptr inbounds nuw i8, ptr %this, i64 360
  %1 = load ptr, ptr %process_.i, align 8, !tbaa !39
  %cmp.not.i.i = icmp eq ptr %1, null
  br i1 %cmp.not.i.i, label %cond.false.i.i, label %_ZNK8QuantLib21AnalyticBarrierEngine10underlyingEv.exit, !prof !71

cond.false.i.i:                                   ; preds = %entry
  tail call void @_ZN5boost16assertion_failedEPKcS1_S1_l(ptr noundef nonnull @.str.19, ptr noundef nonnull @__PRETTY_FUNCTION__._ZNK5boost10shared_ptrIN8QuantLib30GeneralizedBlackScholesProcessEEptEv, ptr noundef nonnull @.str.20, i64 noundef 784)
  %.pre.i.i = load ptr, ptr %process_.i, align 8, !tbaa !39
  br label %_ZNK8QuantLib21AnalyticBarrierEngine10underlyingEv.exit

_ZNK8QuantLib21AnalyticBarrierEngine10underlyingEv.exit: ; preds = %entry, %cond.false.i.i
  %2 = phi ptr [ %1, %entry ], [ %.pre.i.i, %cond.false.i.i ]
  %vtable.i = load ptr, ptr %2, align 8, !tbaa !35
  %vfn.i = getelementptr inbounds i8, ptr %vtable.i, i64 120
  %3 = load ptr, ptr %vfn.i, align 8
  %call2.i = tail call noundef double %3(ptr noundef nonnull align 8 dereferenceable(250) %2)
  %div = fdiv double %0, %call2.i
  %call.i = tail call noundef double @_ZNK8QuantLib21AnalyticBarrierEngine10volatilityEv(ptr noundef nonnull readonly align 8 dereferenceable(440) %this)
  %call2.i8 = tail call noundef double @_ZNK8QuantLib21AnalyticBarrierEngine12riskFreeRateEv(ptr noundef nonnull readonly align 8 dereferenceable(440) %this)
  %call3.i = tail call noundef double @_ZNK8QuantLib21AnalyticBarrierEngine13dividendYieldEv(ptr noundef nonnull readonly align 8 dereferenceable(440) %this)
  %sub.i = fsub double %call2.i8, %call3.i
  %mul.i = fmul double %call.i, %call.i
  %div.i = fdiv double %sub.i, %mul.i
  %sub4.i = fadd double %div.i, -5.000000e-01
  %mul = fmul double %sub4.i, 2.000000e+00
  %call4 = tail call double @pow(double noundef %div, double noundef %mul) #27, !tbaa !105
  %4 = load double, ptr %barrier.i, align 8, !tbaa !103
  %5 = load ptr, ptr %process_.i, align 8, !tbaa !39
  %cmp.not.i.i11 = icmp eq ptr %5, null
  br i1 %cmp.not.i.i11, label %cond.false.i.i15, label %_ZNK8QuantLib21AnalyticBarrierEngine10underlyingEv.exit17, !prof !71

cond.false.i.i15:                                 ; preds = %_ZNK8QuantLib21AnalyticBarrierEngine10underlyingEv.exit
  tail call void @_ZN5boost16assertion_failedEPKcS1_S1_l(ptr noundef nonnull @.str.19, ptr noundef nonnull @__PRETTY_FUNCTION__._ZNK5boost10shared_ptrIN8QuantLib30GeneralizedBlackScholesProcessEEptEv, ptr noundef nonnull @.str.20, i64 noundef 784)
  %.pre.i.i16 = load ptr, ptr %process_.i, align 8, !tbaa !39
  br label %_ZNK8QuantLib21AnalyticBarrierEngine10underlyingEv.exit17

_ZNK8QuantLib21AnalyticBarrierEngine10underlyingEv.exit17: ; preds = %_ZNK8QuantLib21AnalyticBarrierEngine10underlyingEv.exit, %cond.false.i.i15
  %6 = phi ptr [ %5, %_ZNK8QuantLib21AnalyticBarrierEngine10underlyingEv.exit ], [ %.pre.i.i16, %cond.false.i.i15 ]
  %vtable.i12 = load ptr, ptr %6, align 8, !tbaa !35
  %vfn.i13 = getelementptr inbounds i8, ptr %vtable.i12, i64 120
  %7 = load ptr, ptr %vfn.i13, align 8
  %call2.i14 = tail call noundef double %7(ptr noundef nonnull align 8 dereferenceable(250) %6)
  %div9 = fdiv double %4, %call2.i14
  %call10 = tail call double @log(double noundef %div9) #27, !tbaa !105
  %call11 = tail call noundef double @_ZNK8QuantLib21AnalyticBarrierEngine12stdDeviationEv(ptr noundef nonnull align 8 dereferenceable(440) %this)
  %div12 = fdiv double %call10, %call11
  %call.i.i = tail call noundef double @_ZNK8QuantLib21AnalyticBarrierEngine10volatilityEv(ptr noundef nonnull readonly align 8 dereferenceable(440) %this)
  %call2.i.i = tail call noundef double @_ZNK8QuantLib21AnalyticBarrierEngine12riskFreeRateEv(ptr noundef nonnull readonly align 8 dereferenceable(440) %this)
  %call3.i.i = tail call noundef double @_ZNK8QuantLib21AnalyticBarrierEngine13dividendYieldEv(ptr noundef nonnull readonly align 8 dereferenceable(440) %this)
  %sub.i.i = fsub double %call2.i.i, %call3.i.i
  %mul.i.i = fmul double %call.i.i, %call.i.i
  %div.i.i = fdiv double %sub.i.i, %mul.i.i
  %sub4.i.i = fadd double %div.i.i, -5.000000e-01
  %add.i = fadd double %sub4.i.i, 1.000000e+00
  %call2.i18 = tail call noundef double @_ZNK8QuantLib21AnalyticBarrierEngine12stdDeviationEv(ptr noundef nonnull readonly align 8 dereferenceable(440) %this)
  %mul.i19 = fmul double %call2.i18, %add.i
  %add = fadd double %div12, %mul.i19
  %f_ = getelementptr inbounds nuw i8, ptr %this, i64 376
  %mul14 = fmul double %eta, %add
  %call15 = tail call noundef double @_ZNK8QuantLib28CumulativeNormalDistributionclEd(ptr noundef nonnull align 8 dereferenceable(57) %f_, double noundef %mul14)
  %call17 = tail call noundef double @_ZNK8QuantLib21AnalyticBarrierEngine12stdDeviationEv(ptr noundef nonnull align 8 dereferenceable(440) %this)
  %sub = fsub double %add, %call17
  %mul18 = fmul double %eta, %sub
  %call19 = tail call noundef double @_ZNK8QuantLib28CumulativeNormalDistributionclEd(ptr noundef nonnull align 8 dereferenceable(57) %f_, double noundef %mul18)
  %8 = load ptr, ptr %process_.i, align 8, !tbaa !39
  %cmp.not.i.i21 = icmp eq ptr %8, null
  br i1 %cmp.not.i.i21, label %cond.false.i.i25, label %_ZNK8QuantLib21AnalyticBarrierEngine10underlyingEv.exit27, !prof !71

cond.false.i.i25:                                 ; preds = %_ZNK8QuantLib21AnalyticBarrierEngine10underlyingEv.exit17
  tail call void @_ZN5boost16assertion_failedEPKcS1_S1_l(ptr noundef nonnull @.str.19, ptr noundef nonnull @__PRETTY_FUNCTION__._ZNK5boost10shared_ptrIN8QuantLib30GeneralizedBlackScholesProcessEEptEv, ptr noundef nonnull @.str.20, i64 noundef 784)
  %.pre.i.i26 = load ptr, ptr %process_.i, align 8, !tbaa !39
  br label %_ZNK8QuantLib21AnalyticBarrierEngine10underlyingEv.exit27

_ZNK8QuantLib21AnalyticBarrierEngine10underlyingEv.exit27: ; preds = %_ZNK8QuantLib21AnalyticBarrierEngine10underlyingEv.exit17, %cond.false.i.i25
  %9 = phi ptr [ %8, %_ZNK8QuantLib21AnalyticBarrierEngine10underlyingEv.exit17 ], [ %.pre.i.i26, %cond.false.i.i25 ]
  %mul5 = fmul double %div, %call4
  %mul6 = fmul double %div, %mul5
  %vtable.i22 = load ptr, ptr %9, align 8, !tbaa !35
  %vfn.i23 = getelementptr inbounds i8, ptr %vtable.i22, i64 120
  %10 = load ptr, ptr %vfn.i23, align 8
  %call2.i24 = tail call noundef double %10(ptr noundef nonnull align 8 dereferenceable(250) %9)
  %call21 = tail call noundef double @_ZNK8QuantLib21AnalyticBarrierEngine16dividendDiscountEv(ptr noundef nonnull align 8 dereferenceable(440) %this)
  %mul22 = fmul double %call2.i24, %call21
  %cmp = fcmp oeq double %call15, 0.000000e+00
  %mul23 = fmul double %mul6, %call15
  %cond = select i1 %cmp, double 0.000000e+00, double %mul23
  %call25 = tail call noundef double @_ZNK8QuantLib21AnalyticBarrierEngine6strikeEv(ptr noundef nonnull align 8 dereferenceable(440) %this)
  %call26 = tail call noundef double @_ZNK8QuantLib21AnalyticBarrierEngine16riskFreeDiscountEv(ptr noundef nonnull align 8 dereferenceable(440) %this)
  %mul27 = fmul double %call25, %call26
  %cmp28 = fcmp oeq double %call19, 0.000000e+00
  %11 = fneg double %call19
  %mul31.neg = fmul double %call4, %11
  %12 = select i1 %cmp28, double -0.000000e+00, double %mul31.neg
  %neg = fmul double %12, %mul27
  %13 = tail call double @llvm.fmuladd.f64(double %mul22, double %cond, double %neg)
  %mul35 = fmul double %phi, %13
  ret double %mul35
}